((lp0
(dp1
S'javac_switches'
p2
(dp3
S'd'
p4
S'/home/opprop/units-inference/benchmarks/paper-annotation/imgscalr/target/classes'
p5
sS'g'
p6
I01
sS'encoding'
p7
S'UTF-8'
p8
sS'sourcepath'
p9
S'/home/opprop/units-inference/benchmarks/paper-annotation/imgscalr/src/main/java:'
p10
sS'classpath'
p11
S'/home/opprop/units-inference/benchmarks/paper-annotation/imgscalr/target/classes:'
p12
sS'source'
p13
S'1.5'
p14
sS'nowarn'
p15
I01
sS'target'
p16
S'1.5'
p17
ssS'java_files'
p18
(lp19
S'/home/opprop/units-inference/benchmarks/paper-annotation/imgscalr/src/main/java/org/imgscalr/AsyncScalr.java'
p20
aS'/home/opprop/units-inference/benchmarks/paper-annotation/imgscalr/src/main/java/org/imgscalr/Scalr.java'
p21
asa(lp22
(dp23
S'built_jars'
p24
I0
sS'executable_jars'
p25
I0
sS'javac_invocations'
p26
I1
sS'build_time'
p27
F8.64461898803711
sS'source_files'
p28
I2
sS'class_files'
p29
I0
stp30
.